; ModuleID = '1/713.cpp'
source_filename = "1/713.cpp"
target datalayout = "e-m:e-p270:32:32-p271:32:32-p272:64:64-i64:64-f80:128-n8:16:32:64-S128"
target triple = "x86_64-pc-linux-gnu"

%"class.std::ios_base::Init" = type { i8 }
%"class.std::basic_istream" = type { i32 (...)**, i64, %"class.std::basic_ios" }
%"class.std::basic_ios" = type { %"class.std::ios_base", %"class.std::basic_ostream"*, i8, i8, %"class.std::basic_streambuf"*, %"class.std::ctype"*, %"class.std::num_put"*, %"class.std::num_get"* }
%"class.std::ios_base" = type { i32 (...)**, i64, i64, i32, i32, i32, %"struct.std::ios_base::_Callback_list"*, %"struct.std::ios_base::_Words", [8 x %"struct.std::ios_base::_Words"], i32, %"struct.std::ios_base::_Words"*, %"class.std::locale" }
%"struct.std::ios_base::_Callback_list" = type { %"struct.std::ios_base::_Callback_list"*, void (i32, %"class.std::ios_base"*, i32)*, i32, i32 }
%"struct.std::ios_base::_Words" = type { i8*, i64 }
%"class.std::locale" = type { %"class.std::locale::_Impl"* }
%"class.std::locale::_Impl" = type { i32, %"class.std::locale::facet"**, i64, %"class.std::locale::facet"**, i8** }
%"class.std::locale::facet" = type <{ i32 (...)**, i32, [4 x i8] }>
%"class.std::basic_ostream" = type { i32 (...)**, %"class.std::basic_ios" }
%"class.std::basic_streambuf" = type { i32 (...)**, i8*, i8*, i8*, i8*, i8*, i8*, %"class.std::locale" }
%"class.std::ctype" = type <{ %"class.std::locale::facet.base", [4 x i8], %struct.__locale_struct*, i8, [7 x i8], i32*, i32*, i16*, i8, [256 x i8], [256 x i8], i8, [6 x i8] }>
%"class.std::locale::facet.base" = type <{ i32 (...)**, i32 }>
%struct.__locale_struct = type { [13 x %struct.__locale_data*], i16*, i32*, i32*, [13 x i8*] }
%struct.__locale_data = type opaque
%"class.std::num_put" = type { %"class.std::locale::facet.base", [4 x i8] }
%"class.std::num_get" = type { %"class.std::locale::facet.base", [4 x i8] }

@_ZStL8__ioinit = internal global %"class.std::ios_base::Init" zeroinitializer, align 1
@__dso_handle = external hidden global i8
@sum = dso_local global i32 1, align 4
@_ZSt3cin = external dso_local global %"class.std::basic_istream", align 8
@_ZSt4cout = external dso_local global %"class.std::basic_ostream", align 8
@llvm.global_ctors = appending global [1 x { i32, void ()*, i8* }] [{ i32, void ()*, i8* } { i32 65535, void ()* @_GLOBAL__sub_I_713.cpp, i8* null }]

; Function Attrs: noinline uwtable
define internal void @__cxx_global_var_init() #0 section ".text.startup" {
  call void @_ZNSt8ios_base4InitC1Ev(%"class.std::ios_base::Init"* @_ZStL8__ioinit)
  %1 = call i32 @__cxa_atexit(void (i8*)* bitcast (void (%"class.std::ios_base::Init"*)* @_ZNSt8ios_base4InitD1Ev to void (i8*)*), i8* getelementptr inbounds (%"class.std::ios_base::Init", %"class.std::ios_base::Init"* @_ZStL8__ioinit, i32 0, i32 0), i8* @__dso_handle) #3
  ret void
}

declare dso_local void @_ZNSt8ios_base4InitC1Ev(%"class.std::ios_base::Init"*) unnamed_addr #1

; Function Attrs: nounwind
declare dso_local void @_ZNSt8ios_base4InitD1Ev(%"class.std::ios_base::Init"*) unnamed_addr #2

; Function Attrs: nounwind
declare dso_local i32 @__cxa_atexit(void (i8*)*, i8*, i8*) #3

; Function Attrs: noinline nounwind uwtable
define dso_local i32 @_Z2kkii(i32 %0, i32 %1) #4 {
  %3 = alloca i32, align 4
  %4 = alloca i32, align 4
  %5 = alloca i32, align 4
  %6 = alloca i32, align 4
  store i32 %0, i32* %4, align 4
  store i32 %1, i32* %5, align 4
  %7 = load i32, i32* %5, align 4
  store i32 %7, i32* %6, align 4
  br label %8

8:                                                ; preds = %21, %2
  %9 = load i32, i32* %6, align 4
  %10 = icmp sge i32 %9, 2
  br i1 %10, label %11, label %24

11:                                               ; preds = %8
  %12 = load i32, i32* %4, align 4
  %13 = load i32, i32* %6, align 4
  %14 = srem i32 %12, %13
  %15 = icmp eq i32 %14, 0
  br i1 %15, label %16, label %20

16:                                               ; preds = %11
  %17 = load i32, i32* %4, align 4
  %18 = load i32, i32* %6, align 4
  %19 = sdiv i32 %17, %18
  store i32 %19, i32* %3, align 4
  br label %25

20:                                               ; preds = %11
  br label %21

21:                                               ; preds = %20
  %22 = load i32, i32* %6, align 4
  %23 = add nsw i32 %22, -1
  store i32 %23, i32* %6, align 4
  br label %8

24:                                               ; preds = %8
  store i32 0, i32* %3, align 4
  br label %25

25:                                               ; preds = %24, %16
  %26 = load i32, i32* %3, align 4
  ret i32 %26
}

; Function Attrs: noinline uwtable
define dso_local i32 @_Z8seperateii(i32 %0, i32 %1) #0 {
  %3 = alloca i32, align 4
  %4 = alloca i32, align 4
  %5 = alloca i32, align 4
  store i32 %0, i32* %3, align 4
  store i32 %1, i32* %4, align 4
  %6 = load i32, i32* %4, align 4
  store i32 %6, i32* %5, align 4
  br label %7

7:                                                ; preds = %59, %2
  %8 = load i32, i32* %5, align 4
  %9 = icmp sge i32 %8, 2
  br i1 %9, label %10, label %62

10:                                               ; preds = %7
  %11 = load i32, i32* %3, align 4
  %12 = load i32, i32* %5, align 4
  %13 = srem i32 %11, %12
  %14 = icmp eq i32 %13, 0
  br i1 %14, label %15, label %39

15:                                               ; preds = %10
  %16 = load i32, i32* %3, align 4
  %17 = load i32, i32* %5, align 4
  %18 = sdiv i32 %16, %17
  %19 = load i32, i32* %5, align 4
  %20 = icmp sle i32 %18, %19
  br i1 %20, label %21, label %39

21:                                               ; preds = %15
  %22 = load i32, i32* @sum, align 4
  %23 = add nsw i32 %22, 1
  store i32 %23, i32* @sum, align 4
  %24 = load i32, i32* %3, align 4
  %25 = load i32, i32* %5, align 4
  %26 = sdiv i32 %24, %25
  %27 = icmp eq i32 %26, 2
  br i1 %27, label %28, label %29

28:                                               ; preds = %21
  br label %59

29:                                               ; preds = %21
  %30 = load i32, i32* %3, align 4
  %31 = load i32, i32* %5, align 4
  %32 = sdiv i32 %30, %31
  %33 = load i32, i32* %3, align 4
  %34 = load i32, i32* %5, align 4
  %35 = sdiv i32 %33, %34
  %36 = sub nsw i32 %35, 1
  %37 = call i32 @_Z8seperateii(i32 %32, i32 %36)
  br label %38

38:                                               ; preds = %29
  br label %58

39:                                               ; preds = %15, %10
  %40 = load i32, i32* %3, align 4
  %41 = load i32, i32* %5, align 4
  %42 = srem i32 %40, %41
  %43 = icmp eq i32 %42, 0
  br i1 %43, label %44, label %57

44:                                               ; preds = %39
  %45 = load i32, i32* %3, align 4
  %46 = load i32, i32* %5, align 4
  %47 = sdiv i32 %45, %46
  %48 = load i32, i32* %5, align 4
  %49 = call i32 @_Z2kkii(i32 %47, i32 %48)
  %50 = icmp ne i32 %49, 0
  br i1 %50, label %51, label %57

51:                                               ; preds = %44
  %52 = load i32, i32* %3, align 4
  %53 = load i32, i32* %5, align 4
  %54 = sdiv i32 %52, %53
  %55 = load i32, i32* %5, align 4
  %56 = call i32 @_Z8seperateii(i32 %54, i32 %55)
  br label %57

57:                                               ; preds = %51, %44, %39
  br label %58

58:                                               ; preds = %57, %38
  br label %59

59:                                               ; preds = %58, %28
  %60 = load i32, i32* %5, align 4
  %61 = add nsw i32 %60, -1
  store i32 %61, i32* %5, align 4
  br label %7

62:                                               ; preds = %7
  %63 = load i32, i32* @sum, align 4
  ret i32 %63
}

; Function Attrs: noinline norecurse uwtable
define dso_local i32 @main() #5 {
  %1 = alloca i32, align 4
  %2 = alloca i32, align 4
  %3 = alloca i32, align 4
  %4 = alloca i32, align 4
  store i32 0, i32* %1, align 4
  %5 = call dereferenceable(280) %"class.std::basic_istream"* @_ZNSirsERi(%"class.std::basic_istream"* @_ZSt3cin, i32* dereferenceable(4) %2)
  store i32 1, i32* %3, align 4
  br label %6

6:                                                ; preds = %18, %0
  %7 = load i32, i32* %3, align 4
  %8 = load i32, i32* %2, align 4
  %9 = icmp sle i32 %7, %8
  br i1 %9, label %10, label %21

10:                                               ; preds = %6
  %11 = call dereferenceable(280) %"class.std::basic_istream"* @_ZNSirsERi(%"class.std::basic_istream"* @_ZSt3cin, i32* dereferenceable(4) %4)
  %12 = load i32, i32* %4, align 4
  %13 = load i32, i32* %4, align 4
  %14 = sub nsw i32 %13, 1
  %15 = call i32 @_Z8seperateii(i32 %12, i32 %14)
  %16 = call dereferenceable(272) %"class.std::basic_ostream"* @_ZNSolsEi(%"class.std::basic_ostream"* @_ZSt4cout, i32 %15)
  %17 = call dereferenceable(272) %"class.std::basic_ostream"* @_ZNSolsEPFRSoS_E(%"class.std::basic_ostream"* %16, %"class.std::basic_ostream"* (%"class.std::basic_ostream"*)* @_ZSt4endlIcSt11char_traitsIcEERSt13basic_ostreamIT_T0_ES6_)
  store i32 1, i32* @sum, align 4
  br label %18

18:                                               ; preds = %10
  %19 = load i32, i32* %3, align 4
  %20 = add nsw i32 %19, 1
  store i32 %20, i32* %3, align 4
  br label %6

21:                                               ; preds = %6
  ret i32 0
}

declare dso_local dereferenceable(280) %"class.std::basic_istream"* @_ZNSirsERi(%"class.std::basic_istream"*, i32* dereferenceable(4)) #1

declare dso_local dereferenceable(272) %"class.std::basic_ostream"* @_ZNSolsEi(%"class.std::basic_ostream"*, i32) #1

declare dso_local dereferenceable(272) %"class.std::basic_ostream"* @_ZNSolsEPFRSoS_E(%"class.std::basic_ostream"*, %"class.std::basic_ostream"* (%"class.std::basic_ostream"*)*) #1

declare dso_local dereferenceable(272) %"class.std::basic_ostream"* @_ZSt4endlIcSt11char_traitsIcEERSt13basic_ostreamIT_T0_ES6_(%"class.std::basic_ostream"* dereferenceable(272)) #1

; Function Attrs: noinline uwtable
define internal void @_GLOBAL__sub_I_713.cpp() #0 section ".text.startup" {
  call void @__cxx_global_var_init()
  ret void
}


!llvm.module.flags = !{!0}
!llvm.ident = !{!1}

!0 = !{i32 1, !"wchar_size", i32 4}
!1 = !{!"clang version 10.0.0-4ubuntu1 "}
